target datalayout = "e-m:e-p270:32:32-p271:32:32-p272:64:64-i64:64-i128:128-f80:128-n8:16:32:64-S128"
target triple = "x86_64-pc-linux-gnu"

%struct.SlruCtlData = type { ptr, i16, i8, i32, ptr, [64 x i8] }
%struct.xl_clog_truncate = type { i64, i32, i32 }

@XactCtlData = internal global %struct.SlruCtlData zeroinitializer, align 8

; Function Attrs: nounwind uwtable
define internal void @WriteTruncateXlogRec(i64 noundef %0, i32 noundef %1, i32 noundef %2) #0 {
  %4 = alloca i64, align 8
  %5 = alloca i32, align 4
  %6 = alloca i32, align 4
  %7 = alloca i64, align 8
  %8 = alloca %struct.xl_clog_truncate, align 8
  store i64 %0, ptr %4, align 8
  store i32 %1, ptr %5, align 4
  store i32 %2, ptr %6, align 4
  call void @llvm.lifetime.start.p0(i64 8, ptr %7) #8
  call void @llvm.lifetime.start.p0(i64 16, ptr %8) #8
  %9 = load i64, ptr %4, align 8
  %10 = getelementptr inbounds nuw %struct.xl_clog_truncate, ptr %8, i32 0, i32 0
  store i64 %9, ptr %10, align 8
  %11 = load i32, ptr %5, align 4
  %12 = getelementptr inbounds nuw %struct.xl_clog_truncate, ptr %8, i32 0, i32 1
  store i32 %11, ptr %12, align 8
  %13 = load i32, ptr %6, align 4
  %14 = getelementptr inbounds nuw %struct.xl_clog_truncate, ptr %8, i32 0, i32 2
  store i32 %13, ptr %14, align 4
  call void @XLogBeginInsert()
  call void @XLogRegisterData(ptr noundef %8, i32 noundef 16)
  %15 = call i64 @XLogInsert(i8 noundef zeroext 3, i8 noundef zeroext 16)
  store i64 %15, ptr %7, align 8
  %16 = load i64, ptr %7, align 8
  call void @XLogFlush(i64 noundef %16)
  call void @llvm.lifetime.end.p0(i64 16, ptr %8) #8
  call void @llvm.lifetime.end.p0(i64 8, ptr %7) #8
  ret void
}

; Function Attrs: inlinehint nounwind uwtable
define internal i64 @TransactionIdToPage(i32 noundef %0) #2 {
  %2 = alloca i32, align 4
  store i32 %0, ptr %2, align 4
  %3 = load i32, ptr %2, align 4
  %4 = zext i32 %3 to i64
  %5 = sdiv i64 %4, 32768
  ret i64 %5
}

; Function Attrs: nounwind uwtable
define dso_local void @TruncateCLOG(i32 noundef %0, i32 noundef %1) #0 {
  %3 = alloca i32, align 4
  %4 = alloca i32, align 4
  %5 = alloca i64, align 8
  %6 = alloca i32, align 4
  store i32 %0, ptr %3, align 4
  store i32 %1, ptr %4, align 4
  call void @llvm.lifetime.start.p0(i64 8, ptr %5) #8
  %7 = load i32, ptr %3, align 4
  %8 = call i64 @TransactionIdToPage(i32 noundef %7)
  store i64 %8, ptr %5, align 8
  %9 = call zeroext i1 @SlruScanDirectory(ptr noundef @XactCtlData, ptr noundef @SlruScanDirCbReportPresence, ptr noundef %5)
  br i1 %9, label %11, label %10

10:                                               ; preds = %2
  store i32 1, ptr %6, align 4
  br label %17

11:                                               ; preds = %2
  %12 = load i32, ptr %3, align 4
  call void @AdvanceOldestClogXid(i32 noundef %12)
  %13 = load i64, ptr %5, align 8
  %14 = load i32, ptr %3, align 4
  %15 = load i32, ptr %4, align 4
  call void @WriteTruncateXlogRec(i64 noundef %13, i32 noundef %14, i32 noundef %15)
  %16 = load i64, ptr %5, align 8
  call void @SimpleLruTruncate(ptr noundef @XactCtlData, i64 noundef %16)
  store i32 0, ptr %6, align 4
  br label %17

17:                                               ; preds = %11, %10
  call void @llvm.lifetime.end.p0(i64 8, ptr %5) #8
  %18 = load i32, ptr %6, align 4
  switch i32 %18, label %20 [
    i32 0, label %19
    i32 1, label %19
  ]

19:                                               ; preds = %17, %17
  ret void

20:                                               ; preds = %17
  unreachable
}