; Function Attrs: nounwind uwtable
define dso_local void @TruncateCLOG(i32 noundef %0, i32 noundef %1) local_unnamed_addr #0 {
  %3 = alloca %struct.xl_clog_truncate, align 8
  %4 = alloca i64, align 8
  call void @llvm.lifetime.start.p0(i64 8, ptr nonnull %4) #9
  %5 = lshr i32 %0, 15
  %6 = zext nneg i32 %5 to i64
  store i64 %6, ptr %4, align 8
  %7 = call zeroext i1 @SlruScanDirectory(ptr noundef nonnull @XactCtlData, ptr noundef nonnull @SlruScanDirCbReportPresence, ptr noundef nonnull %4) #9
  br i1 %7, label %8, label %14

8:                                                ; preds = %2
  call void @AdvanceOldestClogXid(i32 noundef %0) #9
  %9 = load i64, ptr %4, align 8
  call void @llvm.lifetime.start.p0(i64 16, ptr nonnull %3) #9
  store i64 %9, ptr %3, align 8
  %10 = getelementptr inbounds nuw i8, ptr %3, i64 8
  store i32 %0, ptr %10, align 8
  %11 = getelementptr inbounds nuw i8, ptr %3, i64 12
  store i32 %1, ptr %11, align 4
  call void @XLogBeginInsert() #9
  call void @XLogRegisterData(ptr noundef nonnull %3, i32 noundef 16) #9
  %12 = call i64 @XLogInsert(i8 noundef zeroext 3, i8 noundef zeroext 16) #9
  call void @XLogFlush(i64 noundef %12) #9
  call void @llvm.lifetime.end.p0(i64 16, ptr nonnull %3) #9
  %13 = load i64, ptr %4, align 8
  call void @SimpleLruTruncate(ptr noundef nonnull @XactCtlData, i64 noundef %13) #9
  br label %14

14:                                               ; preds = %2, %8
  call void @llvm.lifetime.end.p0(i64 8, ptr nonnull %4) #9
  ret void
}